target datalayout = "e-m:e-p270:32:32-p271:32:32-p272:64:64-i64:64-i128:128-f80:128-n8:16:32:64-S128"
target triple = "x86_64-pc-linux-gnu"

; Function Attrs: alwaysinline nounwind willreturn memory(none) uwtable
define internal zeroext i8 @av_clip_uint8_c(i32 noundef %0) #6 {
  %2 = alloca i8, align 1
  %3 = alloca i32, align 4
  store i32 %0, ptr %3, align 4, !tbaa !17
  %4 = load i32, ptr %3, align 4, !tbaa !17
  %5 = and i32 %4, -256
  %6 = icmp ne i32 %5, 0
  br i1 %6, label %7, label %12

7:                                                ; preds = %1
  %8 = load i32, ptr %3, align 4, !tbaa !17
  %9 = xor i32 %8, -1
  %10 = ashr i32 %9, 31
  %11 = trunc i32 %10 to i8
  store i8 %11, ptr %2, align 1
  br label %15

12:                                               ; preds = %1
  %13 = load i32, ptr %3, align 4, !tbaa !17
  %14 = trunc i32 %13 to i8
  store i8 %14, ptr %2, align 1
  br label %15

15:                                               ; preds = %12, %7
  %16 = load i8, ptr %2, align 1
  ret i8 %16
}

; Function Attrs: nounwind uwtable
define internal void @rgba2ycocg(ptr noundef %0, ptr noundef %1) #1 {
  %3 = alloca ptr, align 8
  %4 = alloca ptr, align 8
  %5 = alloca i32, align 4
  %6 = alloca i32, align 4
  %7 = alloca i32, align 4
  %8 = alloca i32, align 4
  store ptr %0, ptr %3, align 8, !tbaa !13
  store ptr %1, ptr %4, align 8, !tbaa !13
  call void @llvm.lifetime.start.p0(i64 4, ptr %5) #7
  %9 = load ptr, ptr %4, align 8, !tbaa !13
  %10 = getelementptr inbounds i8, ptr %9, i64 0
  %11 = load i8, ptr %10, align 1, !tbaa !46
  %12 = zext i8 %11 to i32
  store i32 %12, ptr %5, align 4, !tbaa !17
  call void @llvm.lifetime.start.p0(i64 4, ptr %6) #7
  %13 = load ptr, ptr %4, align 8, !tbaa !13
  %14 = getelementptr inbounds i8, ptr %13, i64 1
  %15 = load i8, ptr %14, align 1, !tbaa !46
  %16 = zext i8 %15 to i32
  %17 = add nsw i32 %16, 1
  %18 = ashr i32 %17, 1
  store i32 %18, ptr %6, align 4, !tbaa !17
  call void @llvm.lifetime.start.p0(i64 4, ptr %7) #7
  %19 = load ptr, ptr %4, align 8, !tbaa !13
  %20 = getelementptr inbounds i8, ptr %19, i64 2
  %21 = load i8, ptr %20, align 1, !tbaa !46
  %22 = zext i8 %21 to i32
  store i32 %22, ptr %7, align 4, !tbaa !17
  call void @llvm.lifetime.start.p0(i64 4, ptr %8) #7
  %23 = load i32, ptr %5, align 4, !tbaa !17
  %24 = add nsw i32 2, %23
  %25 = load i32, ptr %7, align 4, !tbaa !17
  %26 = add nsw i32 %24, %25
  %27 = ashr i32 %26, 2
  store i32 %27, ptr %8, align 4, !tbaa !17
  %28 = load i32, ptr %5, align 4, !tbaa !17
  %29 = load i32, ptr %7, align 4, !tbaa !17
  %30 = sub nsw i32 %28, %29
  %31 = add nsw i32 %30, 1
  %32 = ashr i32 %31, 1
  %33 = add nsw i32 128, %32
  %34 = call zeroext i8 @av_clip_uint8_c(i32 noundef %33) #8
  %35 = load ptr, ptr %3, align 8, !tbaa !13
  %36 = getelementptr inbounds i8, ptr %35, i64 0
  store i8 %34, ptr %36, align 1, !tbaa !46
  %37 = load i32, ptr %6, align 4, !tbaa !17
  %38 = add nsw i32 128, %37
  %39 = load i32, ptr %8, align 4, !tbaa !17
  %40 = sub nsw i32 %38, %39
  %41 = call zeroext i8 @av_clip_uint8_c(i32 noundef %40) #8
  %42 = load ptr, ptr %3, align 8, !tbaa !13
  %43 = getelementptr inbounds i8, ptr %42, i64 1
  store i8 %41, ptr %43, align 1, !tbaa !46
  %44 = load ptr, ptr %3, align 8, !tbaa !13
  %45 = getelementptr inbounds i8, ptr %44, i64 2
  store i8 0, ptr %45, align 1, !tbaa !46
  %46 = load i32, ptr %6, align 4, !tbaa !17
  %47 = load i32, ptr %8, align 4, !tbaa !17
  %48 = add nsw i32 %46, %47
  %49 = call zeroext i8 @av_clip_uint8_c(i32 noundef %48) #8
  %50 = load ptr, ptr %3, align 8, !tbaa !13
  %51 = getelementptr inbounds i8, ptr %50, i64 3
  store i8 %49, ptr %51, align 1, !tbaa !46
  call void @llvm.lifetime.end.p0(i64 4, ptr %8) #7
  call void @llvm.lifetime.end.p0(i64 4, ptr %7) #7
  call void @llvm.lifetime.end.p0(i64 4, ptr %6) #7
  call void @llvm.lifetime.end.p0(i64 4, ptr %5) #7
  ret void
}

; Function Attrs: nounwind uwtable
define internal i32 @dxt5ys_block(ptr noundef %0, i64 noundef %1, ptr noundef %2) #1 {
  %4 = alloca ptr, align 8
  %5 = alloca i64, align 8
  %6 = alloca ptr, align 8
  %7 = alloca i32, align 4
  %8 = alloca i32, align 4
  %9 = alloca [64 x i8], align 16
  store ptr %0, ptr %4, align 8, !tbaa !13
  store i64 %1, ptr %5, align 8, !tbaa !15
  store ptr %2, ptr %6, align 8, !tbaa !13
  call void @llvm.lifetime.start.p0(i64 4, ptr %7) #7
  call void @llvm.lifetime.start.p0(i64 4, ptr %8) #7
  call void @llvm.lifetime.start.p0(i64 64, ptr %9) #7
  store i32 0, ptr %8, align 4, !tbaa !17
  br label %10

10:                                               ; preds = %41, %3
  %11 = load i32, ptr %8, align 4, !tbaa !17
  %12 = icmp slt i32 %11, 4
  br i1 %12, label %13, label %44

13:                                               ; preds = %10
  store i32 0, ptr %7, align 4, !tbaa !17
  br label %14

14:                                               ; preds = %37, %13
  %15 = load i32, ptr %7, align 4, !tbaa !17
  %16 = icmp slt i32 %15, 4
  br i1 %16, label %17, label %40

17:                                               ; preds = %14
  %18 = getelementptr inbounds [64 x i8], ptr %9, i64 0, i64 0
  %19 = load i32, ptr %7, align 4, !tbaa !17
  %20 = mul nsw i32 %19, 4
  %21 = sext i32 %20 to i64
  %22 = getelementptr inbounds i8, ptr %18, i64 %21
  %23 = load i32, ptr %8, align 4, !tbaa !17
  %24 = mul nsw i32 %23, 16
  %25 = sext i32 %24 to i64
  %26 = getelementptr inbounds i8, ptr %22, i64 %25
  %27 = load ptr, ptr %6, align 8, !tbaa !13
  %28 = load i32, ptr %7, align 4, !tbaa !17
  %29 = mul nsw i32 %28, 4
  %30 = sext i32 %29 to i64
  %31 = getelementptr inbounds i8, ptr %27, i64 %30
  %32 = load i32, ptr %8, align 4, !tbaa !17
  %33 = sext i32 %32 to i64
  %34 = load i64, ptr %5, align 8, !tbaa !15
  %35 = mul nsw i64 %33, %34
  %36 = getelementptr inbounds i8, ptr %31, i64 %35
  call void @rgba2ycocg(ptr noundef %26, ptr noundef %36)
  br label %37

37:                                               ; preds = %17
  %38 = load i32, ptr %7, align 4, !tbaa !17
  %39 = add nsw i32 %38, 1
  store i32 %39, ptr %7, align 4, !tbaa !17
  br label %14, !llvm.loop !19

40:                                               ; preds = %14
  br label %41

41:                                               ; preds = %40
  %42 = load i32, ptr %8, align 4, !tbaa !17
  %43 = add nsw i32 %42, 1
  store i32 %43, ptr %8, align 4, !tbaa !17
  br label %10, !llvm.loop !21

44:                                               ; preds = %10
  %45 = load ptr, ptr %4, align 8, !tbaa !13
  %46 = getelementptr inbounds i8, ptr %45, i64 0
  %47 = getelementptr inbounds [64 x i8], ptr %9, i64 0, i64 0
  call void @compress_alpha(ptr noundef %46, i64 noundef 16, ptr noundef %47)
  %48 = load ptr, ptr %4, align 8, !tbaa !13
  %49 = getelementptr inbounds i8, ptr %48, i64 8
  %50 = getelementptr inbounds [64 x i8], ptr %9, i64 0, i64 0
  call void @compress_color(ptr noundef %49, i64 noundef 16, ptr noundef %50)
  call void @llvm.lifetime.end.p0(i64 64, ptr %9) #7
  call void @llvm.lifetime.end.p0(i64 4, ptr %8) #7
  call void @llvm.lifetime.end.p0(i64 4, ptr %7) #7
  ret i32 16
}