; Function Attrs: nofree norecurse nosync nounwind memory(argmem: readwrite) uwtable
define internal noundef i32 @dxt5ys_block(ptr noundef writeonly captures(none) %0, i64 noundef %1, ptr noundef readonly captures(none) %2) #1 {
  %4 = alloca [64 x i8], align 16
  call void @llvm.lifetime.start.p0(i64 64, ptr nonnull %4) #7
  br label %.preheader

.preheader:                                       ; preds = %3, %35
  %indvars.iv18 = phi i64 [ 0, %3 ], [ %indvars.iv.next19, %35 ]
  %5 = shl nuw nsw i64 %indvars.iv18, 4
  %invariant.gep = getelementptr inbounds nuw i8, ptr %4, i64 %5
  %6 = mul nsw i64 %1, %indvars.iv18
  %invariant.gep13 = getelementptr i8, ptr %2, i64 %6
  br label %7

7:                                                ; preds = %.preheader, %7
  %indvars.iv = phi i64 [ 0, %.preheader ], [ %indvars.iv.next, %7 ]
  %8 = shl nuw nsw i64 %indvars.iv, 2
  %gep = getelementptr inbounds nuw i8, ptr %invariant.gep, i64 %8
  %gep14 = getelementptr i8, ptr %invariant.gep13, i64 %8
  %9 = load i8, ptr %gep14, align 1, !tbaa !11
  %10 = zext i8 %9 to i32
  %11 = getelementptr inbounds nuw i8, ptr %gep14, i64 1
  %12 = load i8, ptr %11, align 1, !tbaa !11
  %13 = zext i8 %12 to i32
  %14 = add nuw nsw i32 %13, 1
  %15 = lshr i32 %14, 1
  %16 = getelementptr inbounds nuw i8, ptr %gep14, i64 2
  %17 = load i8, ptr %16, align 1, !tbaa !11
  %18 = zext i8 %17 to i32
  %19 = add nuw nsw i32 %10, 2
  %20 = add nuw nsw i32 %19, %18
  %21 = lshr i32 %20, 2
  %22 = add nuw nsw i32 %10, 1
  %23 = sub nsw i32 %22, %18
  %24 = ashr i32 %23, 1
  %25 = add nsw i32 %24, 128
  %.not.i.i = icmp samesign ult i32 %25, 256
  %26 = trunc nuw i32 %25 to i8
  %.0.i.i = select i1 %.not.i.i, i8 %26, i8 -1
  store i8 %.0.i.i, ptr %gep, align 4, !tbaa !11
  %27 = add nuw nsw i32 %15, 128
  %28 = sub nuw nsw i32 %27, %21
  %.not.i14.i = icmp samesign ult i32 %28, 256
  %29 = trunc nuw i32 %28 to i8
  %.0.i15.i = select i1 %.not.i14.i, i8 %29, i8 -1
  %30 = getelementptr inbounds nuw i8, ptr %gep, i64 1
  store i8 %.0.i15.i, ptr %30, align 1, !tbaa !11
  %31 = getelementptr inbounds nuw i8, ptr %gep, i64 2
  store i8 0, ptr %31, align 2, !tbaa !11
  %32 = add nuw nsw i32 %21, %15
  %.not.i16.i = icmp samesign ult i32 %32, 256
  %33 = trunc nuw i32 %32 to i8
  %.0.i17.i = select i1 %.not.i16.i, i8 %33, i8 -1
  %34 = getelementptr inbounds nuw i8, ptr %gep, i64 3
  store i8 %.0.i17.i, ptr %34, align 1, !tbaa !11
  %indvars.iv.next = add nuw nsw i64 %indvars.iv, 1
  %exitcond.not = icmp eq i64 %indvars.iv.next, 4
  br i1 %exitcond.not, label %35, label %7, !llvm.loop !12

35:                                               ; preds = %7
  %indvars.iv.next19 = add nuw nsw i64 %indvars.iv18, 1
  %exitcond21.not = icmp eq i64 %indvars.iv.next19, 4
  br i1 %exitcond21.not, label %36, label %.preheader, !llvm.loop !14

36:                                               ; preds = %35
  call fastcc void @compress_alpha(ptr noundef %0, i64 noundef 16, ptr noundef nonnull %4)
  %37 = getelementptr inbounds nuw i8, ptr %0, i64 8
  call fastcc void @compress_color(ptr noundef nonnull %37, i64 noundef 16, ptr noundef nonnull %4)
  call void @llvm.lifetime.end.p0(i64 64, ptr nonnull %4) #7
  ret i32 16
}